; Function Attrs: nounwind uwtable
define zeroext i8 @lean_data_value_bool(ptr noundef %0) local_unnamed_addr #0 {
  %2 = ptrtoint ptr %0 to i64
  %3 = and i64 %2, 1
  %.not.i9 = icmp eq i64 %3, 0
  br i1 %.not.i9, label %lean_obj_tag.exit.thread, label %lean_obj_tag.exit

lean_obj_tag.exit:                                ; preds = %1
  %4 = and i64 %2, 8589934590
  %5 = icmp eq i64 %4, 2
  br i1 %5, label %8, label %lean_dec.exit6

lean_obj_tag.exit.thread:                         ; preds = %1
  %6 = getelementptr i8, ptr %0, i64 4
  %.val.i = load i32, ptr %6, align 4
  %.mask = and i32 %.val.i, -16777216
  %7 = icmp eq i32 %.mask, 16777216
  br i1 %7, label %10, label %.thread14

8:                                                ; preds = %lean_obj_tag.exit
  %9 = getelementptr i8, ptr %0, i64 8
  %.val = load i8, ptr %9, align 1, !tbaa !14
  br label %lean_dec.exit6

10:                                               ; preds = %lean_obj_tag.exit.thread
  %11 = getelementptr i8, ptr %0, i64 8
  %.val11 = load i8, ptr %11, align 1, !tbaa !14
  %12 = load i32, ptr %0, align 4, !tbaa !8
  %13 = icmp sgt i32 %12, 1
  br i1 %13, label %14, label %16, !prof !11

14:                                               ; preds = %10
  %15 = add nsw i32 %12, -1
  store i32 %15, ptr %0, align 4, !tbaa !8
  br label %lean_dec.exit6

16:                                               ; preds = %10
  %.not.i = icmp eq i32 %12, 0
  br i1 %.not.i, label %lean_dec.exit6, label %17

17:                                               ; preds = %16
  tail call void @lean_dec_ref_cold(ptr noundef nonnull %0) #6
  br label %lean_dec.exit6

.thread14:                                        ; preds = %lean_obj_tag.exit.thread
  %18 = load i32, ptr %0, align 4, !tbaa !8
  %19 = icmp sgt i32 %18, 1
  br i1 %19, label %20, label %22, !prof !11

20:                                               ; preds = %.thread14
  %21 = add nsw i32 %18, -1
  store i32 %21, ptr %0, align 4, !tbaa !8
  br label %lean_dec.exit6

22:                                               ; preds = %.thread14
  %.not.i7 = icmp eq i32 %18, 0
  br i1 %.not.i7, label %lean_dec.exit6, label %23

23:                                               ; preds = %22
  tail call void @lean_dec_ref_cold(ptr noundef nonnull %0) #6
  br label %lean_dec.exit6

lean_dec.exit6:                                   ; preds = %lean_obj_tag.exit, %8, %20, %22, %23, %14, %16, %17
  %.0 = phi i8 [ %.val, %8 ], [ %.val11, %14 ], [ %.val11, %16 ], [ %.val11, %17 ], [ 0, %23 ], [ 0, %22 ], [ 0, %20 ], [ 0, %lean_obj_tag.exit ]
  ret i8 %.0
}